; ModuleID = '43/572.c'
source_filename = "43/572.c"
target datalayout = "e-m:e-p270:32:32-p271:32:32-p272:64:64-i64:64-f80:128-n8:16:32:64-S128"
target triple = "x86_64-pc-linux-gnu"

@.str = private unnamed_addr constant [3 x i8] c"%d\00", align 1
@.str.1 = private unnamed_addr constant [7 x i8] c"%d %d\0A\00", align 1

; Function Attrs: noinline nounwind uwtable
define dso_local i32 @main() #0 {
  %1 = alloca i32, align 4
  %2 = alloca i32, align 4
  %3 = alloca i32, align 4
  %4 = alloca i32, align 4
  %5 = alloca i32, align 4
  %6 = alloca i32, align 4
  store i32 0, i32* %1, align 4
  %7 = call i32 (i8*, ...) @__isoc99_scanf(i8* getelementptr inbounds ([3 x i8], [3 x i8]* @.str, i64 0, i64 0), i32* %2)
  store i32 3, i32* %3, align 4
  br label %8

8:                                                ; preds = %61, %0
  %9 = load i32, i32* %3, align 4
  %10 = load i32, i32* %2, align 4
  %11 = sdiv i32 %10, 2
  %12 = icmp sle i32 %9, %11
  br i1 %12, label %13, label %66

13:                                               ; preds = %8
  store i32 2, i32* %5, align 4
  br label %14

14:                                               ; preds = %25, %13
  %15 = load i32, i32* %5, align 4
  %16 = load i32, i32* %3, align 4
  %17 = icmp slt i32 %15, %16
  br i1 %17, label %18, label %28

18:                                               ; preds = %14
  %19 = load i32, i32* %3, align 4
  %20 = load i32, i32* %5, align 4
  %21 = srem i32 %19, %20
  %22 = icmp eq i32 %21, 0
  br i1 %22, label %23, label %24

23:                                               ; preds = %18
  br label %28

24:                                               ; preds = %18
  br label %25

25:                                               ; preds = %24
  %26 = load i32, i32* %5, align 4
  %27 = add nsw i32 %26, 1
  store i32 %27, i32* %5, align 4
  br label %14

28:                                               ; preds = %23, %14
  %29 = load i32, i32* %5, align 4
  %30 = load i32, i32* %3, align 4
  %31 = icmp slt i32 %29, %30
  br i1 %31, label %32, label %33

32:                                               ; preds = %28
  br label %61

33:                                               ; preds = %28
  %34 = load i32, i32* %2, align 4
  %35 = load i32, i32* %3, align 4
  %36 = sub nsw i32 %34, %35
  store i32 %36, i32* %4, align 4
  store i32 2, i32* %6, align 4
  br label %37

37:                                               ; preds = %48, %33
  %38 = load i32, i32* %6, align 4
  %39 = load i32, i32* %4, align 4
  %40 = icmp slt i32 %38, %39
  br i1 %40, label %41, label %51

41:                                               ; preds = %37
  %42 = load i32, i32* %4, align 4
  %43 = load i32, i32* %6, align 4
  %44 = srem i32 %42, %43
  %45 = icmp eq i32 %44, 0
  br i1 %45, label %46, label %47

46:                                               ; preds = %41
  br label %51

47:                                               ; preds = %41
  br label %48

48:                                               ; preds = %47
  %49 = load i32, i32* %6, align 4
  %50 = add nsw i32 %49, 1
  store i32 %50, i32* %6, align 4
  br label %37

51:                                               ; preds = %46, %37
  %52 = load i32, i32* %6, align 4
  %53 = load i32, i32* %4, align 4
  %54 = icmp sge i32 %52, %53
  br i1 %54, label %55, label %59

55:                                               ; preds = %51
  %56 = load i32, i32* %3, align 4
  %57 = load i32, i32* %4, align 4
  %58 = call i32 (i8*, ...) @printf(i8* getelementptr inbounds ([7 x i8], [7 x i8]* @.str.1, i64 0, i64 0), i32 %56, i32 %57)
  br label %59

59:                                               ; preds = %55, %51
  br label %60

60:                                               ; preds = %59
  br label %61

61:                                               ; preds = %60, %32
  %62 = load i32, i32* %3, align 4
  %63 = add nsw i32 %62, 1
  store i32 %63, i32* %3, align 4
  %64 = load i32, i32* %3, align 4
  %65 = add nsw i32 %64, 1
  store i32 %65, i32* %3, align 4
  br label %8

66:                                               ; preds = %8
  %67 = load i32, i32* %1, align 4
  ret i32 %67
}

declare dso_local i32 @__isoc99_scanf(i8*, ...) #1

declare dso_local i32 @printf(i8*, ...) #1


!llvm.module.flags = !{!0}
!llvm.ident = !{!1}

!0 = !{i32 1, !"wchar_size", i32 4}
!1 = !{!"clang version 10.0.0-4ubuntu1 "}
